; Function Attrs: nounwind uwtable
define ptr @l___private_Lean_Elab_Command_0__Lean_Elab_Command_getVarDecls(ptr noundef readonly captures(none) %0) local_unnamed_addr #0 {
  %2 = getelementptr inbounds nuw i8, ptr %0, i64 24
  %3 = load ptr, ptr %2, align 8, !tbaa !9
  %4 = load ptr, ptr @l_Lean_Elab_Command_instInhabitedScope, align 8, !tbaa !9
  %5 = tail call ptr @l_List_head_x21___rarg(ptr noundef %4, ptr noundef %3) #6
  %6 = getelementptr inbounds nuw i8, ptr %5, i64 48
  %7 = load ptr, ptr %6, align 8, !tbaa !9
  %8 = ptrtoint ptr %7 to i64
  %9 = and i64 %8, 1
  %.not = icmp eq i64 %9, 0
  br i1 %.not, label %10, label %lean_inc.exit

10:                                               ; preds = %1
  %.val.i = load i32, ptr %7, align 4, !tbaa !4
  %11 = icmp sgt i32 %.val.i, 0
  br i1 %11, label %12, label %14, !prof !13

12:                                               ; preds = %10
  %13 = add nuw i32 %.val.i, 1
  store i32 %13, ptr %7, align 4, !tbaa !4
  br label %lean_inc.exit

14:                                               ; preds = %10
  %.not.i7 = icmp eq i32 %.val.i, 0
  br i1 %.not.i7, label %lean_inc.exit, label %15

15:                                               ; preds = %14
  tail call void @lean_inc_ref_cold(ptr noundef nonnull %7) #6
  br label %lean_inc.exit

lean_inc.exit:                                    ; preds = %15, %14, %12, %1
  %16 = ptrtoint ptr %5 to i64
  %17 = and i64 %16, 1
  %.not8 = icmp eq i64 %17, 0
  br i1 %.not8, label %18, label %lean_dec.exit

18:                                               ; preds = %lean_inc.exit
  %19 = load i32, ptr %5, align 4, !tbaa !4
  %20 = icmp sgt i32 %19, 1
  br i1 %20, label %21, label %23, !prof !13

21:                                               ; preds = %18
  %22 = add nsw i32 %19, -1
  store i32 %22, ptr %5, align 4, !tbaa !4
  br label %lean_dec.exit

23:                                               ; preds = %18
  %.not.i = icmp eq i32 %19, 0
  br i1 %.not.i, label %lean_dec.exit, label %24

24:                                               ; preds = %23
  tail call void @lean_dec_ref_cold(ptr noundef nonnull %5) #6
  br label %lean_dec.exit

lean_dec.exit:                                    ; preds = %24, %23, %21, %lean_inc.exit
  ret ptr %7
}